target datalayout = "e-m:e-p270:32:32-p271:32:32-p272:64:64-i64:64-i128:128-f80:128-n8:16:32:64-S128"
target triple = "x86_64-pc-linux-gnu"

%struct.select_item = type { i8, i64, i64 }

@max_selected = internal global i32 0, align 4
@selectfrm = internal global [512 x %struct.select_item] zeroinitializer, align 16

; Function Attrs: nounwind null_pointer_is_valid sspstrong uwtable
define internal zeroext i1 @selected(i64 noundef %0) #8 {
  %2 = alloca i1, align 1
  %3 = alloca i64, align 8
  %4 = alloca i32, align 4
  %5 = alloca i32, align 4
  store i64 %0, ptr %3, align 8
  call void @llvm.lifetime.start.p0(i64 4, ptr %4) #14
  store i32 0, ptr %4, align 4
  br label %6

6:                                                ; preds = %46, %1
  %7 = load i32, ptr %4, align 4
  %8 = load i32, ptr @max_selected, align 4
  %9 = icmp ult i32 %7, %8
  br i1 %9, label %10, label %49

10:                                               ; preds = %6
  %11 = load i32, ptr %4, align 4
  %12 = zext i32 %11 to i64
  %13 = getelementptr [512 x %struct.select_item], ptr @selectfrm, i64 0, i64 %12
  %14 = getelementptr inbounds nuw %struct.select_item, ptr %13, i32 0, i32 0
  %15 = load i8, ptr %14, align 8, !range !7, !noundef !8
  %16 = trunc i8 %15 to i1
  br i1 %16, label %17, label %35

17:                                               ; preds = %10
  %18 = load i32, ptr %4, align 4
  %19 = zext i32 %18 to i64
  %20 = getelementptr [512 x %struct.select_item], ptr @selectfrm, i64 0, i64 %19
  %21 = getelementptr inbounds nuw %struct.select_item, ptr %20, i32 0, i32 1
  %22 = load i64, ptr %21, align 8
  %23 = load i64, ptr %3, align 8
  %24 = icmp ule i64 %22, %23
  br i1 %24, label %25, label %34

25:                                               ; preds = %17
  %26 = load i32, ptr %4, align 4
  %27 = zext i32 %26 to i64
  %28 = getelementptr [512 x %struct.select_item], ptr @selectfrm, i64 0, i64 %27
  %29 = getelementptr inbounds nuw %struct.select_item, ptr %28, i32 0, i32 2
  %30 = load i64, ptr %29, align 8
  %31 = load i64, ptr %3, align 8
  %32 = icmp uge i64 %30, %31
  br i1 %32, label %33, label %34

33:                                               ; preds = %25
  store i1 true, ptr %2, align 1
  store i32 1, ptr %5, align 4
  br label %50

34:                                               ; preds = %25, %17
  br label %45

35:                                               ; preds = %10
  %36 = load i64, ptr %3, align 8
  %37 = load i32, ptr %4, align 4
  %38 = zext i32 %37 to i64
  %39 = getelementptr [512 x %struct.select_item], ptr @selectfrm, i64 0, i64 %38
  %40 = getelementptr inbounds nuw %struct.select_item, ptr %39, i32 0, i32 1
  %41 = load i64, ptr %40, align 8
  %42 = icmp eq i64 %36, %41
  br i1 %42, label %43, label %44

43:                                               ; preds = %35
  store i1 true, ptr %2, align 1
  store i32 1, ptr %5, align 4
  br label %50

44:                                               ; preds = %35
  br label %45

45:                                               ; preds = %44, %34
  br label %46

46:                                               ; preds = %45
  %47 = load i32, ptr %4, align 4
  %48 = add i32 %47, 1
  store i32 %48, ptr %4, align 4
  br label %6, !llvm.loop !43

49:                                               ; preds = %6
  store i1 false, ptr %2, align 1
  store i32 1, ptr %5, align 4
  br label %50

50:                                               ; preds = %49, %43, %33
  call void @llvm.lifetime.end.p0(i64 4, ptr %4) #14
  %51 = load i1, ptr %2, align 1
  ret i1 %51
}