; Function Attrs: nofree norecurse nosync nounwind null_pointer_is_valid sspstrong memory(read, argmem: none, inaccessiblemem: none) uwtable
define internal fastcc noundef zeroext i1 @selected(i64 noundef %0) unnamed_addr #12 {
  %2 = load i32, ptr @max_selected, align 4
  %.not17 = icmp eq i32 %2, 0
  br i1 %.not17, label %._crit_edge, label %.lr.ph.preheader

.lr.ph.preheader:                                 ; preds = %1
  %wide.trip.count = zext i32 %2 to i64
  br label %.lr.ph

.lr.ph:                                           ; preds = %.lr.ph.preheader, %14
  %indvars.iv = phi i64 [ 0, %.lr.ph.preheader ], [ %indvars.iv.next, %14 ]
  %3 = getelementptr [512 x %struct.select_item], ptr @selectfrm, i64 0, i64 %indvars.iv
  %4 = load i8, ptr %3, align 8, !range !41, !noundef !42
  %5 = trunc nuw i8 %4 to i1
  %6 = getelementptr inbounds nuw i8, ptr %3, i64 8
  %7 = load i64, ptr %6, align 8
  br i1 %5, label %8, label %12

8:                                                ; preds = %.lr.ph
  %.not = icmp ugt i64 %7, %0
  br i1 %.not, label %14, label %9

9:                                                ; preds = %8
  %10 = getelementptr inbounds nuw i8, ptr %3, i64 16
  %11 = load i64, ptr %10, align 8
  %.not11 = icmp ult i64 %11, %0
  br i1 %.not11, label %14, label %._crit_edge

12:                                               ; preds = %.lr.ph
  %13 = icmp eq i64 %0, %7
  br i1 %13, label %._crit_edge, label %14

14:                                               ; preds = %9, %8, %12
  %indvars.iv.next = add nuw nsw i64 %indvars.iv, 1
  %exitcond.not = icmp eq i64 %indvars.iv.next, %wide.trip.count
  br i1 %exitcond.not, label %._crit_edge, label %.lr.ph, !llvm.loop !43

._crit_edge:                                      ; preds = %9, %12, %14, %1
  %.lcssa = phi i1 [ false, %1 ], [ false, %14 ], [ true, %12 ], [ true, %9 ]
  ret i1 %.lcssa
}